HI-TECH Software C Compiler 

Linker command line:

\
  --edf=C:\Program Files (x86)\HI-TECH Software\PICC-18\STD\9.51\dat\en_msgs.txt \
  --emax=10 -cs -h+MiniMigPic.sym -z -Q18F252 -ol.obj -MMiniMigPic.map -E1 \
  -ACODE=00h-03FFFhx2 -ALOWCODE=00h-03FFFhx2 -ARAM=00h-0FFhx6 \
  -ABIGRAM=00h-05FFh -ACOMRAM=00h-07Fh -ANVRAM=0500h-05FFh \
  -preset_vec=00h,intcode=08h,intcodelo,powerup,init,end_init \
  -plowtext=end_init -pramtop=0600h -ACONFIG=0300000h-030000Dh \
  -pconfig=CONFIG -AIDLOC=0200000h-0200007h -pidloc=IDLOC \
  -AEEDATA=0F00000h-0F000FFh -peeprom_data=EEDATA -pconst=end_init+0600h \
  -ptemp=COMRAM,nvrram=COMRAM,nvbit=COMRAM,rbss=COMRAM,rbit=COMRAM,rdata=COMRAM \
  -pstruct=COMRAM -pnvram=-NVRAM -AFARRAM=00h-00h \
  -pfarbss=FARRAM,fardata=FARRAM \
  -pintsave_regs=BIGRAM,bigbss=BIGRAM,bigdata=BIGRAM -pparam=RAM -pdata=RAM \
  -pidata=CODE,irdata=CODE,ibigdata=CODE,ifardata=CODE startup.obj \
  osdFont.obj osd.obj mmc.obj menu.obj main.obj hdd.obj hardware.obj \
  fileBrowser.obj fat16.obj config.obj boot.obj adf.obj \
  C:\Program Files (x86)\HI-TECH Software\PICC-18\STD\9.51\lib\pic84--p.lib \
  C:\Program Files (x86)\HI-TECH Software\PICC-18\STD\9.51\lib\pic093pm.lib \
  C:\Program Files (x86)\HI-TECH Software\PICC-18\STD\9.51\lib\pic86l-l.lib \
  C:\Program Files (x86)\HI-TECH Software\PICC-18\STD\9.51\lib\pic86l-c.lib 

Object code version is 3.10

Machine type is 18F252

Call graph: (short form)

*_main size 0,9 offset 0
     _memset size 6,0 offset 169
     _HardwareInit size 0,0 offset 9
     _printf size 4,2 offset 9
         _sprintf size 6,16 offset 26
             _putch size 0,0 offset 48
             _chread size 2,0 offset 48
             llmod size 0,0 offset 48
                 l0neg size 0,0 offset 52
             lldiv_f size 0,0 offset 48
             llmul_f size 0,0 offset 171
             lldiv size 0,0 offset 52
                 l0neg size 0,0 offset 52
     _LoadConfiguration size 0,15 offset 9
         _GetConfigStringValue size 5,3 offset 24
             _eeprom_read size 2,0 offset 32
             _strncpy size 6,0 offset 38
         _GetConfigValue size 2,1 offset 24
             _eeprom_read size 2,0 offset 32
         _sprintf size 6,16 offset 26
     _MMC_Init size 0,2 offset 9
         _SPI size 0,0 offset 201
         _Command_R1 size 4,2 offset 190
             _Command_R0 size 4,1 offset 196
                 _SPI size 0,0 offset 201
                 _MmcAddCrc7 size 0,0 offset 201
             _SPI size 0,0 offset 201
         _Command_R3 size 4,2 offset 11
             _Command_R0 size 4,1 offset 196
             _SPI size 0,0 offset 201
     _FatalError size 0,0 offset 13
     _FindDrive size 0,8 offset 9
         _MMC_Read ARG size 6 offset 184
             _MMC_Read size 0 offset 190
                 _Command_R1 size 4,2 offset 190
                 _SPI size 0,0 offset 201
             _GetLBA size 2,4 offset 190
                 llmul size 0,0 offset 196
         _OpenRootDirectory size 2,0 offset 17
             _memset size 6,0 offset 169
         llmul size 0,0 offset 196
     _ConfigureFpga size 0,4 offset 9
         _FatalError size 0,0 offset 13
         _Open size 4,0 offset 18
             _GetDirectoryEntry size 5,3 offset 38
                 _FindPreviousDirectoryEntry size 5,4 offset 46
                     _FileSeek size 6,8 offset 162
                         _GetNextClusterIndexFromFAT size 2,6 offset 176
                             _MMC_Read ARG size 6 offset 184
                             llslr size 0,0 offset 184
                         aldiv_f size 0,0 offset 176
                     _GetLBA size 2,4 offset 190
                     _MMC_Read ARG size 6 offset 184
                 _memset size 6,0 offset 169
                 _FileSeek size 6,8 offset 162
                 _GetLBA size 2,4 offset 190
                 _MMC_Read ARG size 6 offset 184
                 _ProcessDirEntry size 4,2 offset 46
                     _memset size 6,0 offset 169
                     _memcpy size 6,0 offset 169
                     awmul size 0,0 offset 52
                     llsll size 0,0 offset 52
                 _FileNextSector size 2,0 offset 46
                     _GetNextClusterIndexFromFAT size 2,6 offset 176
         _putch size 0,0 offset 48
         _FileRead size 2,0 offset 162
             _GetLBA size 2,4 offset 190
             _MMC_Read ARG size 6 offset 184
         _ShiftFpga size 0,0 offset 13
         _FileNextSector size 2,0 offset 46
     _WaitTimer size 2,0 offset 9
         _GetTimer size 2,0 offset 17
         _CheckTimer size 2,0 offset 17
*    _OsdGetCtrl size 0,2 offset 15
         _OsdCommand size 0,0 offset 26
             _SPI size 0,0 offset 201
         _GetTimer size 2,0 offset 17
         _CheckTimer size 2,0 offset 17
         _GetASCIIKey size 0,0 offset 17
     _ConfigChipset size 0,1 offset 15
         _OsdCommand size 0,0 offset 26
     _OsdReset size 0,1 offset 15
         _OsdCommand size 0,0 offset 26
     _ConfigFloppy size 1,1 offset 15
         _OsdCommand size 0,0 offset 26
     _sprintf size 6,16 offset 26
     _BootPrint size 2,8 offset 17
         _SPI size 0,0 offset 201
     _UploadKickstart size 2,0 offset 15
         _Open size 4,0 offset 18
         _BootPrint size 2,8 offset 17
         _BootUpload size 4,5 offset 17
             _SPI size 0,0 offset 201
             _SendBootFPGACommand size 2,1 offset 26
                 _SPI size 0,0 offset 201
             _SendFile size 2,4 offset 26
                 _FileRead size 2,0 offset 162
                 _SPI size 0,0 offset 201
                 _putch size 0,0 offset 48
                 _FileNextSector size 2,0 offset 46
                 llslr size 0,0 offset 184
     _strcpy size 4,0 offset 15
     _UploadActionReplay size 2,0 offset 9
         _Open size 4,0 offset 18
         _BootPrint size 2,8 offset 17
         _BootUpload size 4,5 offset 17
         _ClearMemory size 1,5 offset 11
             _SPI size 0,0 offset 201
             _SendBootFPGACommand size 2,1 offset 26
     _strncpy size 6,0 offset 38
*    _OpenHardfile size 2,1 offset 15
*        _Open size 4,0 offset 18
         _GetHardfileGeometry size 2,32 offset 18
             llslr size 0,0 offset 184
             llmul size 0,0 offset 196
             lldiv size 0,0 offset 52
     _ConfigIDE size 2,1 offset 15
         _OsdCommand size 0,0 offset 26
     _ConfigMemory size 0,1 offset 15
         _OsdCommand size 0,0 offset 26
     _BootExit size 0,4 offset 15
         _SPI size 0,0 offset 201
         _SendBootFPGACommand size 2,1 offset 26
     _ConfigFilter size 1,1 offset 15
         _OsdCommand size 0,0 offset 26
     _ConfigScanline size 0,1 offset 15
         _OsdCommand size 0,0 offset 26
     _GetTimer size 2,0 offset 17
*    _HandleFpga size 0,2 offset 9
*        _SPI size 0,0 offset 201
         _HandleFDD size 1,0 offset 11
             _ReadTrack size 2,13 offset 12
                 _FileSeek size 6,8 offset 162
                 _SPI size 0,0 offset 201
                 _FileRead size 2,0 offset 162
                 _SectorHeaderToFpga size 2,1 offset 27
                     _SPI size 0,0 offset 201
                 _SectorToFpga size 3,7 offset 27
                     _SPI size 0,0 offset 201
                 _SectorGapToFpga size 0,1 offset 27
                     _SPI size 0,0 offset 201
                 _FileNextSector size 2,0 offset 46
                 llmul_f size 0,0 offset 171
             _WriteTrack size 2,7 offset 12
                 _FileSeek size 6,8 offset 162
                 _GetHeader size 4,10 offset 21
                     _SPI size 0,0 offset 201
                 _FileNextSector size 2,0 offset 46
                 _GetData size 0,12 offset 21
                     _SPI size 0,0 offset 201
                 _FileWrite size 2,0 offset 162
                     _GetLBA size 2,4 offset 190
                     _MMC_Write ARG size 6 offset 164
                         _MMC_Write size 1 offset 170
                             _Command_R1 size 4,2 offset 190
                             _SPI size 0,0 offset 201
                         _GetLBA size 2,4 offset 190
                 _ErrorMessage size 3,2 offset 21
                     _OsdClear size 0,2 offset 26
                         _SPI size 0,0 offset 201
                     _OsdWrite size 3,6 offset 38
                         _SPI size 0,0 offset 201
                     _strncpy size 6,0 offset 38
                     _sprintf size 6,16 offset 26
                     _OsdEnable size 0,0 offset 26
                         _OsdCommand size 0,0 offset 26
                 _FindSync size 2,6 offset 21
                     _SPI size 0,0 offset 201
                 llmul_f size 0,0 offset 171
*        _HandleHDD size 1,150 offset 11
*            _SPI size 0,0 offset 201
             _WriteTaskFile size 5,1 offset 162
                 _SPI size 0,0 offset 201
             _WriteStatus size 0,1 offset 162
                 _SPI size 0,0 offset 201
             _IdentifyDevice size 3,4 offset 162
                 _memset size 6,0 offset 169
                 _memcpy size 6,0 offset 169
                 _SwapBytes size 6,0 offset 169
                 lwmul size 0,0 offset 169
             _chs2lba size 5,4 offset 162
                 llmul_f size 0,0 offset 171
*            _FileSeek size 6,8 offset 162
             _FileRead size 2,0 offset 162
             _FileWrite size 2,0 offset 162
         _UpdateDriveStatus size 0,1 offset 11
             _SPI size 0,0 offset 201
     _CheckTimer size 2,0 offset 17
*    _HandleUI size 0,6 offset 9
*        _OsdGetCtrl size 0,2 offset 15
         _OsdDisable size 0,0 offset 15
             _OsdCommand size 0,0 offset 26
         _OsdClear size 0,2 offset 26
         _OsdEnable size 0,0 offset 26
         _OsdWrite size 3,6 offset 38
         _sprintf size 6,16 offset 26
         _strcat size 4,0 offset 15
         _strncat size 6,0 offset 15
*        _SelectFile size 5,0 offset 15
*            _ScrollDir size 3,3 offset 20
                 _memset size 6,0 offset 169
*                _GetDirectoryEntry size 5,3 offset 38
                 _strncmp size 6,0 offset 26
                 structcopy size 0,0 offset 26
             _OsdClear size 0,2 offset 26
         _InsertFloppy size 2,0 offset 15
             _OsdClear size 0,2 offset 26
             _OsdWrite size 3,6 offset 38
         _HandleUpDown size 1,0 offset 15
*        _PrintDir size 0,23 offset 15
             _OsdWrite size 3,6 offset 38
             _memset size 6,0 offset 169
*            _GetDirectoryEntry size 5,3 offset 38
             _strncpy size 6,0 offset 38
         _GetASCIIKey size 0,0 offset 17
*        _ScrollDir size 3,3 offset 20
         _OpenDirectory size 4,0 offset 15
             _memcpy size 6,0 offset 169
         _OsdReset size 0,1 offset 15
         _SaveConfiguration size 0,1 offset 15
             _SaveConfigValues size 3,1 offset 16
                 _SaveConfigValue size 1,1 offset 20
                     _eeprom_read size 2,0 offset 32
                     _eeprom_write size 3,0 offset 22
             _SaveConfigValue size 1,1 offset 20
         _strcpy size 4,0 offset 15
         _ConfigChipset size 0,1 offset 15
         _ConfigMemory size 0,1 offset 15
         _OpenRootDirectory size 2,0 offset 17
         _ConfigFloppy size 1,1 offset 15
         _ConfigIDE size 2,1 offset 15
*        _OpenHardfile size 2,1 offset 15
         _ConfigFilter size 1,1 offset 15
         _ConfigScanline size 0,1 offset 15
         _memcpy size 6,0 offset 169
         _UploadKickstart size 2,0 offset 15
         _BootExit size 0,4 offset 15
         structcopy size 0,0 offset 26
     llmul size 0,0 offset 196
     llslr size 0,0 offset 184

Estimated maximum call depth: 7

*_intservice size 0,0 offset 201

Estimated maximum call depth: 1


                Name          Link     Load   Length Selector Space Scale
startup.obj     reset_vec        0        0        6       0     0
                end_init        60       60       12       4     0
                init             E        E       52       4     0
osdFont.obj     const          600      600      280     300     0
osd.obj         const          880      880       80     300     0
                temp             0        0        4       0     1
                bigbss         358      358        1     358     1
                bss             16       16        2      16     1
                text          6FCE     6FCE      46E    2000     0
mmc.obj         temp             0        0        2       0     1
                bigbss         359      359        8     358     1
                idata          FF8      FF8        4     7FC     0
                data            33       33        4      33     1
                bss             14       14        2      14     1
                text          6A20     6A20      5AE    2000     0
menu.obj        ibigdata       FFC      FFC        1     7FC     0
                bigdata        357      357        1     357     1
                const          900      900      38C     300     0
                temp             0        0        4       0     1
                bigbss         361      361        4     358     1
                rbit            68        D        6       0     1    8
                bss             18       18        2      18     1
                text           FFE      FFE     15FC     7FF     0
main.obj        const          C8C      C8C      1F3     300     0
                temp             0        0        5       0     1
                bigbss         365      365       19     358     1
                text          3794     3794      7CE     7FF     0
hdd.obj         const          E7F      E7F       47     300     0
                temp             0        0        8       0     1
                bss            300      300       4E     300     1
                text          50BE     50BE      BAE    2000     0
hardware.obj    intcode          8        8        6       4     0
                temp             0        0        4       0     1
                bss             1C       1C        2      1C     1
                text          777C     777C      17A    2000     0
fileBrowser.obj const          EC6      EC6        D     300     0
                temp             0        0        4       0     1
                bigbss         37E      37E        1     358     1
                bss            100      100       F8      37     1
                text            72       72      568       4     0
fat16.obj       const          ED3      ED3        D     300     0
                temp             0        0        C       0     1
                bigbss         37F      37F      280     358     1
                bss            262      262       5B     200     1
                text          25FA     25FA     119A     7FF     0
config.obj      const          EE0      EE0       32     300     0
                temp             0        0        5       0     1
                bss             1E       1E       15      1E     1
                text          743C     743C      340    2000     0
boot.obj        const          F12      F12       BA     300     0
                temp             0        0        4       0     1
                text          5C6C     5C6C      7C6    2000     0
adf.obj         const          FCC      FCC       2B     300     0
                temp             0        0        8       0     1
                bigbss         5FF      5FF        1     358     1
                bss            200      200       62     200     1
                text          4000     4000     10BE    2000     0

C:\Program Files (x86)\HI-TECH Software\PICC-18\STD\9.51\lib\pic84--p.lib
eeread.obj      text          7D68     7D68       1A    2000     0
eewrite.obj     text          7D14     7D14       36    2000     0

C:\Program Files (x86)\HI-TECH Software\PICC-18\STD\9.51\lib\pic093pm.lib

C:\Program Files (x86)\HI-TECH Software\PICC-18\STD\9.51\lib\pic86l-l.lib
printf.obj      text          7D98     7D98       16    2000     0
lmprnt.obj      temp             0        0        8       0     1
                bss             1A       1A        2      1A     1
                text          6432     6432      5EE    2000     0

C:\Program Files (x86)\HI-TECH Software\PICC-18\STD\9.51\lib\pic86l-c.lib
memcpy.obj      temp             0        0        2       0     1
                text          7B8A     7B8A       6C    2000     0
memset.obj      temp             0        0        2       0     1
                text          7CDE     7CDE       36    2000     0
strcat.obj      temp             0        0        2       0     1
                text          7BF6     7BF6       5A    2000     0
strcpy.obj      temp             0        0        2       0     1
                text          7C50     7C50       52    2000     0
strncat.obj     temp             0        0        2       0     1
                text          7B16     7B16       74    2000     0
strncmp.obj     temp             0        0        2       0     1
                text          78F6     78F6       E6    2000     0
strncpy.obj     temp             0        0        2       0     1
                text          7A92     7A92       84    2000     0
aldiv_f.obj     temp             0        0        C       0     1
                text          7DC2     7DC2       14    2000     0
aldiv.obj       temp             0        0        D       0     1
                text          7CA2     7CA2       3C    2000     0
almul_f.obj     temp             0        0        C       0     1
                text          7DAE     7DAE       14    2000     0
btemp0.obj      temp             0        0        1       0     1
btemp10.obj     temp             0        0        B       0     1
btemp11.obj     temp             0        0        C       0     1
btemp12.obj     temp             0        0        D       0     1
btemp1.obj      temp             0        0        2       0     1
btemp2.obj      temp             0        0        3       0     1
btemp3.obj      temp             0        0        4       0     1
btemp4.obj      temp             0        0        5       0     1
btemp5.obj      temp             0        0        6       0     1
btemp6.obj      temp             0        0        7       0     1
btemp7.obj      temp             0        0        8       0     1
btemp8.obj      temp             0        0        9       0     1
btemp9.obj      temp             0        0        A       0     1
l0neg.obj       temp             0        0        4       0     1
                text          7DEA     7DEA       14    2000     0
ldiv.obj        temp             0        0        D       0     1
                text          79DC     79DC       B6    2000     0
lldiv_f.obj     temp             0        0        C       0     1
                text          7DD6     7DD6       14    2000     0
lmul.obj        temp             0        0        C       0     1
                text          3F62     3F62       88     7FF     0
lsll.obj        temp             0        0        5       0     1
                text          3FEA     3FEA       16     7FF     0
lslr.obj        temp             0        0        5       0     1
                text          7D82     7D82       16    2000     0
store.obj       temp             0        0        4       0     1
                text           5DA      5DA       20       4     0
struct.obj      text          7DFE     7DFE        A    2000     0
wmul.obj        temp             0        0        6       0     1
                text          7D4A     7D4A       1E    2000     0

COMMON          param           37       37       C9      37     1

TOTAL           Name          Link     Load   Length  Space
        CLASS   CODE           
                intcode          8        8        6     0
                reset_vec        0        0        6     0
                ibigdata       FFC      FFC        1     0
                end_init        60       60       12     0
                init             E        E       52     0
                const          600      600      9F7     0
                idata          FF8      FF8        4     0
                text          6FCE     6FCE      46E     0
                text          6A20     6A20      5AE     0
                text           FFE      FFE     15FC     0
                text          3794     3794      7CE     0
                text          50BE     50BE      BAE     0
                text          777C     777C      17A     0
                text            72       72      568     0
                text          25FA     25FA     119A     0
                text          743C     743C      340     0
                text          5C6C     5C6C      7C6     0
                text          4000     4000     10BE     0
                text          7D68     7D68       1A     0
                text          7D14     7D14       36     0
                text          7D98     7D98       16     0
                text          6432     6432      5EE     0
                text          7B8A     7B8A       6C     0
                text          7CDE     7CDE       36     0
                text          7BF6     7BF6       5A     0
                text          7C50     7C50       52     0
                text          7B16     7B16       74     0
                text          78F6     78F6       E6     0
                text          7A92     7A92       84     0
                text          7DC2     7DC2       14     0
                text          7CA2     7CA2       3C     0
                text          7DAE     7DAE       14     0
                text          7DEA     7DEA       14     0
                text          79DC     79DC       B6     0
                text          7DD6     7DD6       14     0
                text          3F62     3F62       88     0
                text          3FEA     3FEA       16     0
                text          7D82     7D82       16     0
                text           5DA      5DA       20     0
                text          7DFE     7DFE        A     0
                text          7D4A     7D4A       1E     0

        CLASS   LOWCODE        

        CLASS   RAM            
                param           37       37       C9     1
                data            33       33        4     1
                bss             16       16        2     1
                bss             14       14        2     1
                bss             18       18        2     1
                bss            300      300       4E     1
                bss             1C       1C        2     1
                bss            100      100       F8     1
                bss            262      262       5B     1
                bss             1E       1E       15     1
                bss            200      200       62     1
                bss             1A       1A        2     1

        CLASS   BIGRAM         
                bigdata        357      357        1     1
                bigbss         358      358      2A8     1

        CLASS   COMRAM         
                temp             0        0        D     1
                rbit            68        D        6     1

        CLASS   NVRAM          

        CLASS   CONFIG         

        CLASS   IDLOC          

        CLASS   EEDATA         

        CLASS   FARRAM         



SEGMENTS        Name           Load    Length   Top     Selector    Space Class

                temp            000000  00000E  00000E         0       1  COMRAM  
                reset_vec       000000  000006  000006         0       0  CODE    
                intcode         000008  0005F2  0005FA         4       0  CODE    
                bss             000014  000002  000016        14       1  RAM     
                bss             000016  000002  000018        16       1  RAM     
                bss             000018  000002  00001A        18       1  RAM     
                bss             00001A  000002  00001C        1A       1  RAM     
                bss             00001C  000002  00001E        1C       1  RAM     
                bss             00001E  000015  000033        1E       1  RAM     
                data            000033  000004  000037        33       1  RAM     
                param           000037  0001C1  0001F8        37       1  RAM     
                bss             000200  0000BD  0002BD       200       1  RAM     
                bss             000300  00004E  00034E       300       1  RAM     
                bigdata         000357  000001  000358       357       1  BIGRAM  
                bigbss          000358  0002A8  000600       358       1  BIGRAM  
                const           000600  0009F7  000FF7       300       0  CODE    
                idata           000FF8  000005  000FFD       7FC       0  CODE    
                ifardata        000FFE  003002  004000       7FF       0  CODE    
                text            004000  003E08  007E08      2000       0  CODE    


UNUSED ADDRESS RANGES

        BIGRAM           00000E-000013
                         0001F8-0001FF
                         0002BD-0002FF
                         00034E-000356
        CODE             000006-000007
                         0005FA-0005FF
                         000FF7-000FF7
                         000FFD-000FFD
                         007E08-007FFF
        COMRAM           00000E-000013
        CONFIG           300000-30000D
        EEDATA           F00000-F000FF
        IDLOC            200000-200007
        LOWCODE          000006-000007
                         0005FA-0005FF
                         000FF7-000FF7
                         000FFD-000FFD
                         007E08-007FFF
        RAM              00000E-000013
                         0001F8-0001FF
                         0002BD-0002FF
                         00034E-000356

                                  Symbol Table

?_BootPrint                         param        000048
?_BootUpload                        param        000048
?_CheckTimer                        param        000048
?_CheckTrack                        param        000037
?_ClearMemory                       param        000042
?_Command_R0                        param        0000FB
?_Command_R1                        param        0000F5
?_Command_R2                        param        000037
?_Command_R3                        param        000042
?_ConfigFilter                      param        000046
?_ConfigFloppy                      param        000046
?_ConfigIDE                         param        000046
?_ErrorMessage                      param        00004C
?_FileNextSector                    param        000065
?_FileRead                          param        0000D9
?_FileSeek                          param        0000D9
?_FileWrite                         param        0000D9
?_FindPreviousDirectoryEntry        param        000065
?_FindSync                          param        00004C
?_GetConfigStringValue              param        00004F
?_GetConfigValue                    param        00004F
?_GetDirectoryEntry                 param        00005D
?_GetHardfileGeometry               param        000049
?_GetHeader                         param        00004C
?_GetLBA                            param        0000F5
?_GetNextClusterIndexFromFAT        param        0000E7
?_GetTimer                          param        000048
?_HandleFDD                         param        000042
?_HandleHDD                         param        000042
?_HandleUpDown                      param        000046
?_IdentifyDevice                    param        0000D9
?_InsertFloppy                      param        000046
?_MMC_Read                          param        0000EF
?_MMC_Write                         param        0000DB
?_Open                              param        000049
?_OpenDirectory                     param        000046
?_OpenHardfile                      param        000046
?_OpenRootDirectory                 param        000048
?_OsdWrite                          param        00005D
?_ProcessDirEntry                   param        000065
?_ReadTrack                         param        000043
?_SaveConfigValue                   param        00004B
?_SaveConfigValues                  param        000047
?_ScrollDir                         param        00004B
?_SectorHeaderToFpga                param        000052
?_SectorToFpga                      param        000052
?_SelectFile                        param        000046
?_SendBootFPGACommand               param        000051
?_SendFile                          param        000051
?_SwapBytes                         param        0000E0
?_UploadActionReplay                param        000040
?_UploadKickstart                   param        000046
?_WaitTimer                         param        000040
?_WriteTaskFile                     param        0000D9
?_WriteTrack                        param        000043
?_chread                            param        000067
?_chs2lba                           param        0000D9
?_eeprom_read                       param        000057
?_eeprom_write                      param        00004D
?_memcpy                            param        0000E0
?_memset                            param        0000E0
?_printf                            param        000051
?_sprintf                           param        000051
?_strcat                            param        000046
?_strcpy                            param        000046
?_strncat                           param        000046
?_strncmp                           param        000051
?_strncpy                           param        00005D
?a_BootExit                         param        000046
?a_BootPrint                        param        00004A
?a_BootUpload                       param        00004C
?a_ClearMemory                      param        000043
?a_Command_R0                       param        0000FF
?a_Command_R1                       param        0000F9
?a_Command_R2                       param        000037
?a_Command_R3                       param        000046
?a_ConfigChipset                    param        000046
?a_ConfigFilter                     param        000047
?a_ConfigFloppy                     param        000047
?a_ConfigIDE                        param        000048
?a_ConfigMemory                     param        000046
?a_ConfigScanline                   param        000046
?a_ConfigureFpga                    param        000040
?a_ErrorMessage                     param        00004F
?a_FileSeek                         param        0000DF
?a_FindDrive                        param        000040
?a_FindPreviousDirectoryEntry       param        00006A
?a_FindSync                         param        00004E
?a_GetConfigStringValue             param        000054
?a_GetConfigValue                   param        000051
?a_GetData                          param        00004C
?a_GetDirectoryEntry                param        000062
?a_GetHardfileGeometry              param        00004B
?a_GetHeader                        param        000050
?a_GetLBA                           param        0000F7
?a_GetNextClusterIndexFromFAT       param        0000E9
?a_HandleFpga                       param        000040
?a_HandleHDD                        param        000043
?a_HandleUI                         param        000040
?a_IdentifyDevice                   param        0000DC
?a_LoadConfiguration                param        000040
?a_MMC_Init                         param        000040
?a_MMC_Write                        param        0000E1
?a_OpenHardfile                     param        000048
?a_OsdClear                         param        000051
?a_OsdGetCtrl                       param        000046
?a_OsdReset                         param        000046
?a_OsdWrite                         param        000060
?a_PrintDir                         param        000046
?a_ProcessDirEntry                  param        000069
?a_ReadTrack                        param        000045
?a_SaveConfigValue                  param        00004C
?a_SaveConfigValues                 param        00004A
?a_SaveConfiguration                param        000046
?a_ScrollDir                        param        00004E
?a_SectorGapToFpga                  param        000052
?a_SectorHeaderToFpga               param        000054
?a_SectorToFpga                     param        000055
?a_SendBootFPGACommand              param        000053
?a_SendFile                         param        000053
?a_UpdateDriveStatus                param        000042
?a_WriteStatus                      param        0000D9
?a_WriteTaskFile                    param        0000DE
?a_WriteTrack                       param        000045
?a_chs2lba                          param        0000DE
?a_main                             param        000037
?a_printf                           param        000057
?a_sprintf                          param        000057
_BootExit                           text         006312
_BootPrint                          text         006010
_BootUpload                         text         00618E
_CheckTimer                         text         007804
_CheckTrack                         text         0041D0
_ClearMemory                        text         006372
_Command_R0                         text         006E42
_Command_R1                         text         006EB2
_Command_R2                         text         006EF0
_Command_R3                         text         006F38
_ConfigChipset                      text         0072E0
_ConfigFilter                       text         00729E
_ConfigFloppy                       text         0072F6
_ConfigIDE                          text         00733A
_ConfigMemory                       text         0072CC
_ConfigScanline                     text         007324
_ConfigureFpga                      text         005CEC
_Error                              bigbss       0005FF
_ErrorMessage                       text         00255A
_FatalError                         text         005C6C
_FileNextSector                     text         0032E6
_FileRead                           text         003736
_FileSeek                           text         003366
_FileWrite                          text         003766
_FindDrive                          text         0025FA
_FindPreviousDirectoryEntry         text         002CF0
_FindSync                           text         0047EA
_GetASCIIKey                        text         007408
_GetConfigStringValue               text         007690
_GetConfigValue                     text         007732
_GetData                            text         004B1C
_GetDirectoryEntry                  text         002B48
_GetHardfileGeometry                text         005982
_GetHeader                          text         00489C
_GetLBA                             text         0035FC
_GetNextClusterIndexFromFAT         text         00346E
_GetTimer                           text         0077DC
_HandleFDD                          text         004002
_HandleFpga                         text         003F10
_HandleHDD                          text         0054DE
_HandleUI                           text         000FFE
_HandleUpDown                       text         0024F0
_HardwareInit                       text         00777C
_IdentifyDevice                     text         005116
_InsertFloppy                       text         0040E2
_LoadConfiguration                  text         00743C
_MMC_DIRECT_TRANSFER_MODE           bigbss       000359
_MMC_Init                           text         006A20
_MMC_Read                           text         006BDA
_MMC_Write                          text         006D26
_MmcAddCrc7                         text         006F9C
_Open                               text         0029A8
_OpenDirectory                      text         002ADA
_OpenHardfile                       text         005BE8
_OpenRootDirectory                  text         002A54
_OsdClear                           text         007240
_OsdCommand                         text         00787A
_OsdDisable                         text         00727C
_OsdEnable                          text         007270
_OsdGetCtrl                         text         007370
_OsdReset                           text         007288
_OsdWrite                           text         006FD0
_PrintDir                           text         000072
_ProcessDirEntry                    text         002FFC
_ReadTrack                          text         0041FE
_SPI                                text         00786A
_SaveConfigValue                    text         007628
_SaveConfigValues                   text         007664
_SaveConfiguration                  text         00757A
_ScrollDir                          text         000172
_SectorGapToFpga                    text         00505A
_SectorHeaderToFpga                 text         00507C
_SectorToFpga                       text         004D9E
_SelectFile                         text         002524
_SendBootFPGACommand                text         0063DA
_SendFile                           text         006212
_ShiftFpga                          text         007890
_SwapBytes                          text         0050C0
_UpdateDriveStatus                  text         00408E
_UploadActionReplay                 text         005F6C
_UploadKickstart                    text         005E9C
_WaitTimer                          text         007836
_WriteStatus                        text         0054A6
_WriteTaskFile                      text         005412
_WriteTrack                         text         004614
__Bnvbit                            nvbit        00000D
__Brbit                             rbit         00000D
__HRAM                              (abs)        00034E
__Hbigbss                           bigbss       000600
__Hbigdata                          bigdata      000358
__Hbss                              bss          000FFE
__Hclrtext                          clrtext      000FFE
__Hconfig                           config       300000
__Hconst                            const        000FF7
__Hdata                             data         000037
__Heeprom_data                      eeprom_data  F00000
__Hend_init                         end_init     000072
__Hfarbss                           farbss       000000
__Hfardata                          fardata      000000
__Hibigdata                         ibigdata     000FFD
__Hidata                            idata        000FFC
__Hidloc                            idloc        200000
__Hifardata                         ifardata     000FFE
__Hinit                             init         000060
__Hintcode                          intcode      00000E
__Hintcodelo                        intcodelo    00000E
__Hintentry                         intentry     000FFE
__Hintret                           intret       000FFE
__Hintsave_regs                     intsave_regs 00000E
__Hirdata                           irdata       000FFC
__Hlowtext                          lowtext      000072
__Hnvbit                            nvbit        000068
__Hnvram                            nvram        000500
__Hnvrram                           nvrram       00000D
__Hparam                            param        000100
__Hpowerup                          powerup      00000E
__Hramtop                           ramtop       000600
__Hrbit                             rbit         00006E
__Hrbss                             rbss         00000D
__Hrdata                            rdata        00000E
__Hreset_vec                        reset_vec    000006
__Hstruct                           struct       00000E
__Htemp                             temp         00000D
__Htext                             text         000FFE
__LRAM                              (abs)        000014
__Lbigbss                           bigbss       000358
__Lbigdata                          bigdata      000357
__Lbss                              bss          000FFE
__Lclrtext                          clrtext      000FFE
__Lconfig                           config       300000
__Lconst                            const        000600
__Ldata                             data         000033
__Leeprom_data                      eeprom_data  F00000
__Lend_init                         end_init     000060
__Lfarbss                           farbss       000000
__Lfardata                          fardata      000000
__Libigdata                         ibigdata     000FFC
__Lidata                            idata        000FF8
__Lidloc                            idloc        200000
__Lifardata                         ifardata     000FFE
__Linit                             init         00000E
__Lintcode                          intcode      000008
__Lintcodelo                        intcodelo    00000E
__Lintentry                         intentry     000FFE
__Lintret                           intret       000FFE
__Lintsave_regs                     intsave_regs 00000E
__Lirdata                           irdata       000FFC
__Llowtext                          lowtext      000072
__Lnvbit                            nvbit        000068
__Lnvram                            nvram        000500
__Lnvrram                           nvrram       00000D
__Lparam                            param        000037
__Lpowerup                          powerup      00000E
__Lramtop                           ramtop       000600
__Lrbit                             rbit         000068
__Lrbss                             rbss         00000D
__Lrdata                            rdata        00000E
__Lreset_vec                        reset_vec    000000
__Lstruct                           struct       00000E
__Ltemp                             temp         000000
__Ltext                             text         000FFE
__S0                                (abs)        F00000
__S1                                (abs)        000600
__end_of_BootExit                   text         006370
__end_of_BootPrint                  text         00618C
__end_of_BootUpload                 text         006210
__end_of_CheckTimer                 text         007834
__end_of_CheckTrack                 text         0041FC
__end_of_ClearMemory                text         0063D8
__end_of_Command_R0                 text         006EB0
__end_of_Command_R1                 text         006EEE
__end_of_Command_R2                 text         006F36
__end_of_Command_R3                 text         006F9C
__end_of_ConfigChipset              text         0072F4
__end_of_ConfigFilter               text         0072CC
__end_of_ConfigFloppy               text         007324
__end_of_ConfigIDE                  text         007370
__end_of_ConfigMemory               text         0072E0
__end_of_ConfigScanline             text         007338
__end_of_ConfigureFpga              text         005E9A
__end_of_ErrorMessage               text         0025FA
__end_of_FatalError                 text         005CEC
__end_of_FileNextSector             text         003364
__end_of_FileRead                   text         003764
__end_of_FileSeek                   text         00346C
__end_of_FileWrite                  text         003794
__end_of_FindDrive                  text         0029A6
__end_of_FindPreviousDirectoryEntry text         002FFA
__end_of_FindSync                   text         00489A
__end_of_GetASCIIKey                text         00743C
__end_of_GetConfigStringValue       text         007730
__end_of_GetConfigValue             text         00777C
__end_of_GetData                    text         004D9C
__end_of_GetDirectoryEntry          text         002CEE
__end_of_GetHardfileGeometry        text         005BE6
__end_of_GetHeader                  text         004B1C
__end_of_GetLBA                     text         003734
__end_of_GetNextClusterIndexFromFAT text         0035FA
__end_of_GetTimer                   text         007802
__end_of_HandleFDD                  text         00408E
__end_of_HandleFpga                 text         003F62
__end_of_HandleHDD                  text         005980
__end_of_HandleUI                   text         0024EE
__end_of_HandleUpDown               text         002522
__end_of_HardwareInit               text         0077BC
__end_of_IdentifyDevice             text         00535A
__end_of_InsertFloppy               text         0041CE
__end_of_LoadConfiguration          text         00757A
__end_of_MMC_Init                   text         006BD8
__end_of_MMC_Read                   text         006D24
__end_of_MMC_Write                  text         006E40
__end_of_MmcAddCrc7                 text         006FCE
__end_of_Open                       text         002A52
__end_of_OpenDirectory              text         002B46
__end_of_OpenHardfile               text         005C6C
__end_of_OpenRootDirectory          text         002AD8
__end_of_OsdClear                   text         007270
__end_of_OsdCommand                 text         007890
__end_of_OsdDisable                 text         007288
__end_of_OsdEnable                  text         00727C
__end_of_OsdGetCtrl                 text         007408
__end_of_OsdReset                   text         00729C
__end_of_OsdWrite                   text         007240
__end_of_PrintDir                   text         000170
__end_of_ProcessDirEntry            text         0032E4
__end_of_ReadTrack                  text         004612
__end_of_SPI                        text         00787A
__end_of_SaveConfigValue            text         007662
__end_of_SaveConfigValues           text         00768E
__end_of_SaveConfiguration          text         007626
__end_of_ScrollDir                  text         0005DA
__end_of_SectorGapToFpga            text         00507A
__end_of_SectorHeaderToFpga         text         0050BE
__end_of_SectorToFpga               text         00505A
__end_of_SelectFile                 text         002558
__end_of_SendBootFPGACommand        text         006432
__end_of_SendFile                   text         006312
__end_of_ShiftFpga                  text         0078E8
__end_of_SwapBytes                  text         005114
__end_of_UpdateDriveStatus          text         0040E0
__end_of_UploadActionReplay         text         00600E
__end_of_UploadKickstart            text         005F6A
__end_of_WaitTimer                  text         00786A
__end_of_WriteStatus                text         0054DC
__end_of_WriteTaskFile              text         0054A6
__end_of_WriteTrack                 text         0047E8
__end_of_chread                     text         00645C
__end_of_chs2lba                    text         005410
__end_of_eeprom_read                text         007D82
__end_of_eeprom_write               text         007D4A
__end_of_intservice                 text         0077DA
__end_of_main                       text         003F10
__end_of_memcpy                     text         007BF6
__end_of_memset                     text         007D14
__end_of_putch                      text         0078F6
__end_of_sprintf                    text         006A20
__end_of_strcat                     text         007C50
__end_of_strcpy                     text         007CA2
__end_of_strncat                    text         007B8A
__end_of_strncmp                    text         0079DC
__end_of_strncpy                    text         007B16
__ramtop                            ramtop       000600
_charfont                           const        000600
_chread                             text         006434
_chs2lba                            text         00535C
_config                             bss          00001E
_config_filter_msg                  const        000900
_config_memory_chip_msg             const        000908
_config_memory_slow_msg             const        000910
_config_scanline_msg                const        000918
_crc_7                              bigbss       00035B
_currentDir                         bss          00027F
_defARName                          const        000EEC
_defFloppyExt                       const        000F06
_defHDFileName                      const        000EF8
_defHardDiskExt                     const        000F0E
_defKickName                        const        000EE0
_defRomExt                          const        000F0A
_df                                 bss          000202
_directory                          bss          000100
_dirptr                             bigbss       00037E
_down                               rbit         000068
_eeprom_read                        text         007D6A
_eeprom_write                       text         007D16
_exit                               init         00000E
_fbAllowDirectorySelect             bigbss       000361
_fbExitState                        bigbss       000362
_fbFileExt                          bss          000018
_fbSelectedState                    bigbss       000363
_file                               bss          00029E
_hdf                                bss          000300
_intservice                         text         0077BC
_keycode_table                      const        000880
_left                               rbit         000069
_longFilename                       bigbss       00037F
_main                               text         003794
_memcpy                             text         007B8C
_memset                             text         007CE0
_menu                               rbit         00006A
_menustate                          bigdata      000357
_menusub                            bigbss       000364
_pdfx                               bss          000200
_printf                             text         007D98
_putch                              text         0078E8
_response_1                         bigbss       00035C
_response_2                         bigbss       00035D
_response_3                         bigbss       00035E
_response_4                         bigbss       00035F
_response_5                         bigbss       000360
_right                              rbit         00006B
_s                                  bigbss       000365
_secbuf                             bigbss       0003FF
_select                             rbit         00006C
_selectedPartiton                   bss          000262
_sprintf                            text         00645E
_strcat                             text         007BF8
_strcpy                             text         007C52
_strncat                            text         007B18
_strncmp                            text         0078F8
_strncpy                            text         007A94
_systimer                           bss          00001C
_t_lba                              data         000033
_timeout                            bss          000014
_up                                 rbit         00006D
_version                            const        000C8C
aldiv                               text         007CA2
aldiv_f                             text         007DC2
aldiv_x                             text         007CA6
almod                               text         007CA2
almul                               text         003F62
almul_f                             text         007DAE
almul_x                             text         003F66
alsll                               text         003FEA
awmul                               text         007D4A
doldiv                              text         0079E2
int_func                            text         0077BE
intlevel0                           text         003FEA
intlevel1                           text         003FEA
l0neg                               text         007DEA
lldiv                               text         0079DC
lldiv_f                             text         007DD6
lldiv_x                             text         0079E0
llmod                               text         0079DC
llmul                               text         003F62
llmul_f                             text         007DAE
llmul_x                             text         003F66
llsll                               text         003FEA
llslr                               text         007D82
lwmul                               text         007D4A
restore                             text         0077D0
save                                text         0077D6
start                               init         00000E
storeback                           text         0005E2
storeback_cl                        text         0005DA
structcopy                          text         007DFE
used_btemp0                         (abs)        000001
used_btemp1                         (abs)        000001
used_btemp10                        (abs)        000001
used_btemp11                        (abs)        000001
used_btemp12                        (abs)        000001
used_btemp2                         (abs)        000001
used_btemp3                         (abs)        000001
used_btemp4                         (abs)        000001
used_btemp5                         (abs)        000001
used_btemp6                         (abs)        000001
used_btemp7                         (abs)        000001
used_btemp8                         (abs)        000001
used_btemp9                         (abs)        000001
